target datalayout = "e-m:e-p270:32:32-p271:32:32-p272:64:64-i64:64-i128:128-f80:128-n8:16:32:64-S128"
target triple = "x86_64-pc-linux-gnu"

%struct.SDL_HIDAPI_Device = type { ptr, ptr, ptr, ptr, i16, i16, i16, ptr, %struct.SDL_GUID, i32, i32, i32, i32, i16, i16, i8, i32, i32, i32, ptr, ptr, ptr, ptr, %struct.SDL_AtomicInt, i32, ptr, i8, i8, i8, ptr, i32, ptr, ptr }
%struct.SDL_GUID = type { [16 x i8] }
%struct.SDL_AtomicInt = type { i32 }
%struct.SDL_DriverLg4ff_Context = type { [32 x i8], i8, i8, i16 }

@supported_device_ids = internal global [6 x i32] [i32 49743, i32 49819, i32 49817, i32 49818, i32 49816, i32 49812], align 16
@supported_device_names = internal global [6 x ptr] [ptr @.str.9, ptr @.str.10, ptr @.str.11, ptr @.str.12, ptr @.str.13, ptr @.str.14], align 16
@.str.8 = private unnamed_addr constant [1 x i8] zeroinitializer, align 1

; Function Attrs: nounwind uwtable
define internal zeroext i1 @HIDAPI_DriverLg4ff_SetAutoCenter(ptr noundef %0, i32 noundef %1) #0 {
  %3 = alloca i1, align 1
  %4 = alloca ptr, align 8
  %5 = alloca i32, align 4
  %6 = alloca ptr, align 8
  %7 = alloca [7 x i8], align 1
  %8 = alloca i32, align 4
  %9 = alloca i32, align 4
  %10 = alloca i32, align 4
  %11 = alloca i32, align 4
  store ptr %0, ptr %4, align 8
  store i32 %1, ptr %5, align 4
  call void @llvm.lifetime.start.p0(i64 8, ptr %6) #5
  %12 = load ptr, ptr %4, align 8
  %13 = getelementptr inbounds nuw %struct.SDL_HIDAPI_Device, ptr %12, i32 0, i32 20
  %14 = load ptr, ptr %13, align 8
  store ptr %14, ptr %6, align 8
  call void @llvm.lifetime.start.p0(i64 7, ptr %7) #5
  call void @llvm.memset.p0.i64(ptr align 1 %7, i8 0, i64 7, i1 false)
  call void @llvm.lifetime.start.p0(i64 4, ptr %8) #5
  %15 = load i32, ptr %5, align 4
  %16 = icmp slt i32 %15, 0
  br i1 %16, label %17, label %18

17:                                               ; preds = %2
  store i32 0, ptr %5, align 4
  br label %18

18:                                               ; preds = %17, %2
  %19 = load i32, ptr %5, align 4
  %20 = icmp sgt i32 %19, 65535
  br i1 %20, label %21, label %22

21:                                               ; preds = %18
  store i32 65535, ptr %5, align 4
  br label %22

22:                                               ; preds = %21, %18
  %23 = load ptr, ptr %6, align 8
  %24 = getelementptr inbounds nuw %struct.SDL_DriverLg4ff_Context, ptr %23, i32 0, i32 2
  %25 = load i8, ptr %24, align 1, !range !3, !noundef !4
  %26 = trunc i8 %25 to i1
  br i1 %26, label %27, label %57

27:                                               ; preds = %22
  %28 = load i32, ptr %5, align 4
  %29 = mul nsw i32 %28, 90
  %30 = sdiv i32 %29, 65535
  store i32 %30, ptr %5, align 4
  %31 = getelementptr inbounds [7 x i8], ptr %7, i64 0, i64 0
  store i8 -2, ptr %31, align 1
  %32 = getelementptr inbounds [7 x i8], ptr %7, i64 0, i64 1
  store i8 3, ptr %32, align 1
  %33 = load i32, ptr %5, align 4
  %34 = trunc i32 %33 to i16
  %35 = zext i16 %34 to i32
  %36 = ashr i32 %35, 14
  %37 = trunc i32 %36 to i8
  %38 = getelementptr inbounds [7 x i8], ptr %7, i64 0, i64 2
  store i8 %37, ptr %38, align 1
  %39 = load i32, ptr %5, align 4
  %40 = trunc i32 %39 to i16
  %41 = zext i16 %40 to i32
  %42 = ashr i32 %41, 14
  %43 = trunc i32 %42 to i8
  %44 = getelementptr inbounds [7 x i8], ptr %7, i64 0, i64 3
  store i8 %43, ptr %44, align 1
  %45 = load i32, ptr %5, align 4
  %46 = trunc i32 %45 to i8
  %47 = getelementptr inbounds [7 x i8], ptr %7, i64 0, i64 4
  store i8 %46, ptr %47, align 1
  %48 = load ptr, ptr %4, align 8
  %49 = getelementptr inbounds nuw %struct.SDL_HIDAPI_Device, ptr %48, i32 0, i32 22
  %50 = load ptr, ptr %49, align 8
  %51 = getelementptr inbounds [7 x i8], ptr %7, i64 0, i64 0
  %52 = call i32 @SDL_hid_write_REAL(ptr noundef %50, ptr noundef %51, i64 noundef 7)
  store i32 %52, ptr %8, align 4
  %53 = load i32, ptr %8, align 4
  %54 = icmp eq i32 %53, -1
  br i1 %54, label %55, label %56

55:                                               ; preds = %27
  store i1 false, ptr %3, align 1
  store i32 1, ptr %9, align 4
  br label %130

56:                                               ; preds = %27
  br label %129

57:                                               ; preds = %22
  call void @llvm.lifetime.start.p0(i64 4, ptr %10) #5
  call void @llvm.lifetime.start.p0(i64 4, ptr %11) #5
  %58 = getelementptr inbounds [7 x i8], ptr %7, i64 0, i64 0
  store i8 -11, ptr %58, align 1
  %59 = load ptr, ptr %4, align 8
  %60 = getelementptr inbounds nuw %struct.SDL_HIDAPI_Device, ptr %59, i32 0, i32 22
  %61 = load ptr, ptr %60, align 8
  %62 = getelementptr inbounds [7 x i8], ptr %7, i64 0, i64 0
  %63 = call i32 @SDL_hid_write_REAL(ptr noundef %61, ptr noundef %62, i64 noundef 7)
  store i32 %63, ptr %8, align 4
  %64 = load i32, ptr %8, align 4
  %65 = icmp eq i32 %64, -1
  br i1 %65, label %66, label %67

66:                                               ; preds = %57
  store i1 false, ptr %3, align 1
  store i32 1, ptr %9, align 4
  br label %126

67:                                               ; preds = %57
  %68 = load i32, ptr %5, align 4
  %69 = icmp eq i32 %68, 0
  br i1 %69, label %70, label %71

70:                                               ; preds = %67
  store i1 true, ptr %3, align 1
  store i32 1, ptr %9, align 4
  br label %126

71:                                               ; preds = %67
  %72 = load i32, ptr %5, align 4
  %73 = icmp sle i32 %72, 43690
  br i1 %73, label %74, label %79

74:                                               ; preds = %71
  %75 = load i32, ptr %5, align 4
  %76 = mul nsw i32 12, %75
  store i32 %76, ptr %10, align 4
  %77 = load i32, ptr %5, align 4
  %78 = mul nsw i32 128, %77
  store i32 %78, ptr %11, align 4
  br label %88

79:                                               ; preds = %71
  %80 = load i32, ptr %5, align 4
  %81 = sub nsw i32 %80, 43690
  %82 = mul nsw i32 6, %81
  %83 = add nsw i32 524280, %82
  store i32 %83, ptr %10, align 4
  %84 = load i32, ptr %5, align 4
  %85 = sub nsw i32 %84, 43690
  %86 = mul nsw i32 255, %85
  %87 = add nsw i32 5592320, %86
  store i32 %87, ptr %11, align 4
  br label %88

88:                                               ; preds = %79, %74
  %89 = load i32, ptr %10, align 4
  %90 = lshr i32 %89, 1
  store i32 %90, ptr %10, align 4
  %91 = getelementptr inbounds [7 x i8], ptr %7, i64 0, i64 0
  call void @llvm.memset.p0.i64(ptr align 1 %91, i8 0, i64 7, i1 false)
  %92 = getelementptr inbounds [7 x i8], ptr %7, i64 0, i64 0
  store i8 -2, ptr %92, align 1
  %93 = getelementptr inbounds [7 x i8], ptr %7, i64 0, i64 1
  store i8 13, ptr %93, align 1
  %94 = load i32, ptr %10, align 4
  %95 = udiv i32 %94, 43690
  %96 = trunc i32 %95 to i8
  %97 = getelementptr inbounds [7 x i8], ptr %7, i64 0, i64 2
  store i8 %96, ptr %97, align 1
  %98 = load i32, ptr %10, align 4
  %99 = udiv i32 %98, 43690
  %100 = trunc i32 %99 to i8
  %101 = getelementptr inbounds [7 x i8], ptr %7, i64 0, i64 3
  store i8 %100, ptr %101, align 1
  %102 = load i32, ptr %11, align 4
  %103 = udiv i32 %102, 43690
  %104 = trunc i32 %103 to i8
  %105 = getelementptr inbounds [7 x i8], ptr %7, i64 0, i64 4
  store i8 %104, ptr %105, align 1
  %106 = load ptr, ptr %4, align 8
  %107 = getelementptr inbounds nuw %struct.SDL_HIDAPI_Device, ptr %106, i32 0, i32 22
  %108 = load ptr, ptr %107, align 8
  %109 = getelementptr inbounds [7 x i8], ptr %7, i64 0, i64 0
  %110 = call i32 @SDL_hid_write_REAL(ptr noundef %108, ptr noundef %109, i64 noundef 7)
  store i32 %110, ptr %8, align 4
  %111 = load i32, ptr %8, align 4
  %112 = icmp eq i32 %111, -1
  br i1 %112, label %113, label %114

113:                                              ; preds = %88
  store i1 false, ptr %3, align 1
  store i32 1, ptr %9, align 4
  br label %126

114:                                              ; preds = %88
  %115 = getelementptr inbounds [7 x i8], ptr %7, i64 0, i64 0
  call void @llvm.memset.p0.i64(ptr align 1 %115, i8 0, i64 7, i1 false)
  %116 = getelementptr inbounds [7 x i8], ptr %7, i64 0, i64 0
  store i8 20, ptr %116, align 1
  %117 = load ptr, ptr %4, align 8
  %118 = getelementptr inbounds nuw %struct.SDL_HIDAPI_Device, ptr %117, i32 0, i32 22
  %119 = load ptr, ptr %118, align 8
  %120 = getelementptr inbounds [7 x i8], ptr %7, i64 0, i64 0
  %121 = call i32 @SDL_hid_write_REAL(ptr noundef %119, ptr noundef %120, i64 noundef 7)
  store i32 %121, ptr %8, align 4
  %122 = load i32, ptr %8, align 4
  %123 = icmp eq i32 %122, -1
  br i1 %123, label %124, label %125

124:                                              ; preds = %114
  store i1 false, ptr %3, align 1
  store i32 1, ptr %9, align 4
  br label %126

125:                                              ; preds = %114
  store i32 0, ptr %9, align 4
  br label %126

126:                                              ; preds = %125, %124, %113, %70, %66
  call void @llvm.lifetime.end.p0(i64 4, ptr %11) #5
  call void @llvm.lifetime.end.p0(i64 4, ptr %10) #5
  %127 = load i32, ptr %9, align 4
  switch i32 %127, label %130 [
    i32 0, label %128
  ]

128:                                              ; preds = %126
  br label %129

129:                                              ; preds = %128, %56
  store i1 true, ptr %3, align 1
  store i32 1, ptr %9, align 4
  br label %130

130:                                              ; preds = %129, %126, %55
  call void @llvm.lifetime.end.p0(i64 4, ptr %8) #5
  call void @llvm.lifetime.end.p0(i64 7, ptr %7) #5
  call void @llvm.lifetime.end.p0(i64 8, ptr %6) #5
  %131 = load i1, ptr %3, align 1
  ret i1 %131
}

; Function Attrs: nounwind uwtable
define internal ptr @HIDAPI_DriverLg4ff_GetDeviceName(i32 noundef %0) #0 {
  %2 = alloca ptr, align 8
  %3 = alloca i32, align 4
  %4 = alloca i32, align 4
  %5 = alloca i32, align 4
  store i32 %0, ptr %3, align 4
  call void @llvm.lifetime.start.p0(i64 4, ptr %4) #5
  store i32 0, ptr %4, align 4
  br label %6

6:                                                ; preds = %24, %1
  %7 = load i32, ptr %4, align 4
  %8 = sext i32 %7 to i64
  %9 = icmp ult i64 %8, 6
  br i1 %9, label %11, label %10

10:                                               ; preds = %6
  store i32 2, ptr %5, align 4
  br label %27

11:                                               ; preds = %6
  %12 = load i32, ptr %4, align 4
  %13 = sext i32 %12 to i64
  %14 = getelementptr inbounds [6 x i32], ptr @supported_device_ids, i64 0, i64 %13
  %15 = load i32, ptr %14, align 4
  %16 = load i32, ptr %3, align 4
  %17 = icmp eq i32 %15, %16
  br i1 %17, label %18, label %23

18:                                               ; preds = %11
  %19 = load i32, ptr %4, align 4
  %20 = sext i32 %19 to i64
  %21 = getelementptr inbounds [6 x ptr], ptr @supported_device_names, i64 0, i64 %20
  %22 = load ptr, ptr %21, align 8
  store ptr %22, ptr %2, align 8
  store i32 1, ptr %5, align 4
  br label %27

23:                                               ; preds = %11
  br label %24

24:                                               ; preds = %23
  %25 = load i32, ptr %4, align 4
  %26 = add nsw i32 %25, 1
  store i32 %26, ptr %4, align 4
  br label %6, !llvm.loop !8

27:                                               ; preds = %18, %10
  call void @llvm.lifetime.end.p0(i64 4, ptr %4) #5
  %28 = load i32, ptr %5, align 4
  switch i32 %28, label %34 [
    i32 2, label %29
    i32 1, label %32
  ]

29:                                               ; preds = %27
  br label %30

30:                                               ; preds = %29
  br label %31

31:                                               ; preds = %30
  store ptr @.str.8, ptr %2, align 8
  br label %32

32:                                               ; preds = %31, %27
  %33 = load ptr, ptr %2, align 8
  ret ptr %33

34:                                               ; preds = %27
  unreachable
}

; Function Attrs: nounwind uwtable
define internal zeroext i1 @HIDAPI_DriverLg4ff_InitDevice(ptr noundef %0) #0 {
  %2 = alloca i1, align 1
  %3 = alloca ptr, align 8
  %4 = alloca ptr, align 8
  %5 = alloca i32, align 4
  store ptr %0, ptr %3, align 8
  call void @llvm.lifetime.start.p0(i64 8, ptr %4) #5
  %6 = call noalias ptr @SDL_malloc_REAL(i64 noundef 36)
  store ptr %6, ptr %4, align 8
  %7 = load ptr, ptr %4, align 8
  %8 = icmp eq ptr %7, null
  br i1 %8, label %9, label %11

9:                                                ; preds = %1
  %10 = call zeroext i1 @SDL_OutOfMemory_REAL()
  store i1 false, ptr %2, align 1
  store i32 1, ptr %5, align 4
  br label %65

11:                                               ; preds = %1
  %12 = load ptr, ptr %4, align 8
  call void @llvm.memset.p0.i64(ptr align 2 %12, i8 0, i64 36, i1 false)
  %13 = load ptr, ptr %4, align 8
  %14 = load ptr, ptr %3, align 8
  %15 = getelementptr inbounds nuw %struct.SDL_HIDAPI_Device, ptr %14, i32 0, i32 20
  store ptr %13, ptr %15, align 8
  %16 = load ptr, ptr %3, align 8
  %17 = getelementptr inbounds nuw %struct.SDL_HIDAPI_Device, ptr %16, i32 0, i32 16
  store i32 2, ptr %17, align 8
  %18 = load ptr, ptr %3, align 8
  %19 = load ptr, ptr %3, align 8
  %20 = getelementptr inbounds nuw %struct.SDL_HIDAPI_Device, ptr %19, i32 0, i32 5
  %21 = load i16, ptr %20, align 2
  %22 = zext i16 %21 to i32
  %23 = call ptr @HIDAPI_DriverLg4ff_GetDeviceName(i32 noundef %22)
  call void @HIDAPI_SetDeviceName(ptr noundef %18, ptr noundef %23)
  %24 = load ptr, ptr %3, align 8
  %25 = getelementptr inbounds nuw %struct.SDL_HIDAPI_Device, ptr %24, i32 0, i32 22
  %26 = load ptr, ptr %25, align 8
  %27 = call i32 @SDL_hid_set_nonblocking_REAL(ptr noundef %26, i32 noundef 1)
  %28 = icmp ne i32 %27, 0
  br i1 %28, label %29, label %30

29:                                               ; preds = %11
  store i1 false, ptr %2, align 1
  store i32 1, ptr %5, align 4
  br label %65

30:                                               ; preds = %11
  %31 = load ptr, ptr %3, align 8
  %32 = call zeroext i1 @HIDAPI_DriverLg4ff_SetAutoCenter(ptr noundef %31, i32 noundef 0)
  br i1 %32, label %34, label %33

33:                                               ; preds = %30
  store i1 false, ptr %2, align 1
  store i32 1, ptr %5, align 4
  br label %65

34:                                               ; preds = %30
  %35 = load ptr, ptr %3, align 8
  %36 = getelementptr inbounds nuw %struct.SDL_HIDAPI_Device, ptr %35, i32 0, i32 5
  %37 = load i16, ptr %36, align 2
  %38 = zext i16 %37 to i32
  %39 = icmp eq i32 %38, 49812
  br i1 %39, label %40, label %57

40:                                               ; preds = %34
  %41 = load ptr, ptr %3, align 8
  %42 = getelementptr inbounds nuw %struct.SDL_HIDAPI_Device, ptr %41, i32 0, i32 6
  %43 = load i16, ptr %42, align 4
  %44 = zext i16 %43 to i32
  %45 = ashr i32 %44, 8
  %46 = icmp eq i32 %45, 33
  br i1 %46, label %47, label %57

47:                                               ; preds = %40
  %48 = load ptr, ptr %3, align 8
  %49 = getelementptr inbounds nuw %struct.SDL_HIDAPI_Device, ptr %48, i32 0, i32 6
  %50 = load i16, ptr %49, align 4
  %51 = zext i16 %50 to i32
  %52 = and i32 %51, 255
  %53 = icmp eq i32 %52, 0
  br i1 %53, label %54, label %57

54:                                               ; preds = %47
  %55 = load ptr, ptr %4, align 8
  %56 = getelementptr inbounds nuw %struct.SDL_DriverLg4ff_Context, ptr %55, i32 0, i32 2
  store i8 1, ptr %56, align 1
  br label %60

57:                                               ; preds = %47, %40, %34
  %58 = load ptr, ptr %4, align 8
  %59 = getelementptr inbounds nuw %struct.SDL_DriverLg4ff_Context, ptr %58, i32 0, i32 2
  store i8 0, ptr %59, align 1
  br label %60

60:                                               ; preds = %57, %54
  %61 = load ptr, ptr %4, align 8
  %62 = getelementptr inbounds nuw %struct.SDL_DriverLg4ff_Context, ptr %61, i32 0, i32 3
  store i16 900, ptr %62, align 2
  %63 = load ptr, ptr %3, align 8
  %64 = call zeroext i1 @HIDAPI_JoystickConnected(ptr noundef %63, ptr noundef null)
  store i1 %64, ptr %2, align 1
  store i32 1, ptr %5, align 4
  br label %65

65:                                               ; preds = %60, %33, %29, %9
  call void @llvm.lifetime.end.p0(i64 8, ptr %4) #5
  %66 = load i1, ptr %2, align 1
  ret i1 %66
}