; Function Attrs: nounwind uwtable
define internal zeroext i1 @HIDAPI_DriverLg4ff_InitDevice(ptr noundef %0) #0 {
  %2 = alloca [7 x i8], align 1
  %3 = tail call noalias ptr @SDL_malloc_REAL(i64 noundef 36) #8
  %4 = icmp eq ptr %3, null
  br i1 %4, label %5, label %7

5:                                                ; preds = %1
  %6 = tail call zeroext i1 @SDL_OutOfMemory_REAL() #8
  br label %45

7:                                                ; preds = %1
  tail call void @llvm.memset.p0.i64(ptr noundef nonnull align 2 dereferenceable(36) %3, i8 0, i64 36, i1 false)
  %8 = getelementptr inbounds nuw i8, ptr %0, i64 112
  store ptr %3, ptr %8, align 8
  %9 = getelementptr inbounds nuw i8, ptr %0, i64 88
  store i32 2, ptr %9, align 8
  %10 = getelementptr inbounds nuw i8, ptr %0, i64 34
  %11 = load i16, ptr %10, align 2
  %12 = zext i16 %11 to i32
  br label %14

13:                                               ; preds = %14
  %indvars.iv.next.i = add nuw nsw i64 %indvars.iv.i, 1
  %exitcond.i = icmp eq i64 %indvars.iv.next.i, 6
  br i1 %exitcond.i, label %HIDAPI_DriverLg4ff_GetDeviceName.exit, label %14, !llvm.loop !5

14:                                               ; preds = %13, %7
  %indvars.iv.i = phi i64 [ 0, %7 ], [ %indvars.iv.next.i, %13 ]
  %15 = getelementptr inbounds nuw [6 x i32], ptr @supported_device_ids, i64 0, i64 %indvars.iv.i
  %16 = load i32, ptr %15, align 4
  %17 = icmp eq i32 %16, %12
  br i1 %17, label %18, label %13

18:                                               ; preds = %14
  %19 = getelementptr inbounds nuw [6 x ptr], ptr @supported_device_names, i64 0, i64 %indvars.iv.i
  %20 = load ptr, ptr %19, align 8
  br label %HIDAPI_DriverLg4ff_GetDeviceName.exit

HIDAPI_DriverLg4ff_GetDeviceName.exit:            ; preds = %13, %18
  %spec.select.i = phi ptr [ %20, %18 ], [ @.str.8, %13 ]
  tail call void @HIDAPI_SetDeviceName(ptr noundef %0, ptr noundef %spec.select.i) #8
  %21 = getelementptr inbounds nuw i8, ptr %0, i64 128
  %22 = load ptr, ptr %21, align 8
  %23 = tail call i32 @SDL_hid_set_nonblocking_REAL(ptr noundef %22, i32 noundef 1) #8
  %.not = icmp eq i32 %23, 0
  br i1 %.not, label %24, label %45

24:                                               ; preds = %HIDAPI_DriverLg4ff_GetDeviceName.exit
  %25 = load ptr, ptr %8, align 8
  call void @llvm.lifetime.start.p0(i64 7, ptr nonnull %2) #8
  %26 = getelementptr inbounds nuw i8, ptr %2, i64 1
  call void @llvm.memset.p0.i64(ptr noundef nonnull align 1 dereferenceable(6) %26, i8 0, i64 6, i1 false)
  %27 = getelementptr inbounds nuw i8, ptr %25, i64 33
  %28 = load i8, ptr %27, align 1, !range !6, !noundef !7
  %29 = trunc nuw i8 %28 to i1
  br i1 %29, label %30, label %HIDAPI_DriverLg4ff_SetAutoCenter.exit

30:                                               ; preds = %24
  %31 = getelementptr inbounds nuw i8, ptr %2, i64 1
  store i8 3, ptr %31, align 1
  br label %HIDAPI_DriverLg4ff_SetAutoCenter.exit

HIDAPI_DriverLg4ff_SetAutoCenter.exit:            ; preds = %24, %30
  %.sink = phi i8 [ -2, %30 ], [ -11, %24 ]
  store i8 %.sink, ptr %2, align 1
  %32 = load ptr, ptr %21, align 8
  %33 = call i32 @SDL_hid_write_REAL(ptr noundef %32, ptr noundef nonnull %2, i64 noundef 7) #8
  %.030.i.not = icmp eq i32 %33, -1
  call void @llvm.lifetime.end.p0(i64 7, ptr nonnull %2) #8
  br i1 %.030.i.not, label %45, label %34

34:                                               ; preds = %HIDAPI_DriverLg4ff_SetAutoCenter.exit
  %35 = load i16, ptr %10, align 2
  %36 = icmp eq i16 %35, -15724
  br i1 %36, label %37, label %40

37:                                               ; preds = %34
  %38 = getelementptr inbounds nuw i8, ptr %0, i64 36
  %39 = load i16, ptr %38, align 4
  %or.cond = icmp eq i16 %39, 8448
  br i1 %or.cond, label %41, label %40

40:                                               ; preds = %37, %34
  br label %41

41:                                               ; preds = %37, %40
  %.sink22 = phi i8 [ 0, %40 ], [ 1, %37 ]
  %42 = getelementptr inbounds nuw i8, ptr %3, i64 33
  store i8 %.sink22, ptr %42, align 1
  %43 = getelementptr inbounds nuw i8, ptr %3, i64 34
  store i16 900, ptr %43, align 2
  %44 = call zeroext i1 @HIDAPI_JoystickConnected(ptr noundef nonnull %0, ptr noundef null) #8
  br label %45

45:                                               ; preds = %HIDAPI_DriverLg4ff_SetAutoCenter.exit, %HIDAPI_DriverLg4ff_GetDeviceName.exit, %41, %5
  %.0 = phi i1 [ false, %5 ], [ %44, %41 ], [ false, %HIDAPI_DriverLg4ff_GetDeviceName.exit ], [ false, %HIDAPI_DriverLg4ff_SetAutoCenter.exit ]
  ret i1 %.0
}